; Function Attrs: nounwind uwtable
define internal void @surfaceHandleEnter(ptr noundef %0, ptr readnone captures(none) %1, ptr noundef %2) #0 {
  %4 = load ptr, ptr getelementptr inbounds nuw (i8, ptr @_glfw, i64 137504), align 8, !tbaa !180
  %5 = tail call ptr %4(ptr noundef %2) #20
  %.not = icmp eq ptr %5, getelementptr inbounds nuw (i8, ptr @_glfw, i64 134088)
  br i1 %.not, label %6, label %30

6:                                                ; preds = %3
  %7 = load ptr, ptr getelementptr inbounds nuw (i8, ptr @_glfw, i64 137488), align 8, !tbaa !181
  %8 = tail call ptr %7(ptr noundef %2) #20
  %9 = icmp ne ptr %0, null
  %10 = icmp ne ptr %8, null
  %or.cond = select i1 %9, i1 %10, i1 false
  br i1 %or.cond, label %11, label %30

11:                                               ; preds = %6
  %12 = getelementptr inbounds nuw i8, ptr %0, i64 1040
  %13 = load i64, ptr %12, align 8, !tbaa !129
  %14 = add i64 %13, 1
  %15 = getelementptr inbounds nuw i8, ptr %0, i64 1048
  %16 = load i64, ptr %15, align 8, !tbaa !389
  %17 = icmp ugt i64 %14, %16
  br i1 %17, label %18, label %._crit_edge

._crit_edge:                                      ; preds = %11
  %.phi.trans.insert = getelementptr inbounds nuw i8, ptr %0, i64 1032
  %.pre20 = load ptr, ptr %.phi.trans.insert, align 8, !tbaa !131
  br label %24

18:                                               ; preds = %11
  %19 = add nuw i64 %16, 1
  store i64 %19, ptr %15, align 8, !tbaa !389
  %20 = getelementptr inbounds nuw i8, ptr %0, i64 1032
  %21 = load ptr, ptr %20, align 8, !tbaa !131
  %22 = shl i64 %19, 4
  %23 = tail call ptr @_glfw_realloc(ptr noundef %21, i64 noundef %22) #20
  store ptr %23, ptr %20, align 8, !tbaa !131
  %.pre = load i64, ptr %12, align 8, !tbaa !129
  %.pre21 = add i64 %.pre, 1
  br label %24

24:                                               ; preds = %._crit_edge, %18
  %.pre-phi = phi i64 [ %14, %._crit_edge ], [ %.pre21, %18 ]
  %25 = phi ptr [ %.pre20, %._crit_edge ], [ %23, %18 ]
  %26 = phi i64 [ %13, %._crit_edge ], [ %.pre, %18 ]
  store i64 %.pre-phi, ptr %12, align 8, !tbaa !129
  %27 = getelementptr inbounds nuw %struct._GLFWscaleWayland, ptr %25, i64 %26
  %28 = getelementptr inbounds nuw i8, ptr %8, i64 280
  %29 = load i32, ptr %28, align 8, !tbaa !390
  store ptr %2, ptr %27, align 8, !tbaa !391
  %.sroa.2.0..sroa_idx = getelementptr inbounds nuw i8, ptr %27, i64 8
  store i32 %29, ptr %.sroa.2.0..sroa_idx, align 8, !tbaa !147
  %.sroa.3.0..sroa_idx = getelementptr inbounds nuw i8, ptr %27, i64 12
  store i32 0, ptr %.sroa.3.0..sroa_idx, align 4
  tail call void @_glfwUpdateBufferScaleFromOutputsWayland(ptr noundef nonnull %0)
  br label %30

30:                                               ; preds = %24, %6, %3
  ret void
}